; Function Attrs: mustprogress nofree norecurse nosync nounwind willreturn memory(read, inaccessiblemem: none) uwtable
define dso_local range(i32 0, 2) i32 @_PyWeakref_IsDead(ptr noundef readonly captures(none) %0) local_unnamed_addr #3 {
  %2 = getelementptr i8, ptr %0, i64 16
  %.val = load ptr, ptr %2, align 8, !tbaa !37
  %3 = icmp eq ptr %.val, @_Py_NoneStruct
  br i1 %3, label %_PyWeakref_IS_DEAD.exit, label %4

4:                                                ; preds = %1
  %.val.i = load i32, ptr %.val, align 8, !tbaa !42
  %5 = icmp eq i32 %.val.i, 0
  %6 = zext i1 %5 to i32
  br label %_PyWeakref_IS_DEAD.exit

_PyWeakref_IS_DEAD.exit:                          ; preds = %1, %4
  %.0.i = phi i32 [ %6, %4 ], [ 1, %1 ]
  ret i32 %.0.i
}